target datalayout = "e-m:e-p270:32:32-p271:32:32-p272:64:64-i64:64-i128:128-f80:128-n8:16:32:64-S128"
target triple = "x86_64-pc-linux-gnu"

%struct.prolog_state = type { ptr, i32, i32, i32, i32, i32 }
%struct.encoding = type { [4 x ptr], [2 x ptr], ptr, ptr, ptr, ptr, ptr, ptr, ptr, ptr, ptr, ptr, i32, i8, i8 }

@KW_NOTATION = internal constant [9 x i8] c"NOTATION\00", align 1
@attlist2.types = internal constant [8 x ptr] [ptr @KW_CDATA, ptr @KW_ID, ptr @KW_IDREF, ptr @KW_IDREFS, ptr @KW_ENTITY, ptr @KW_ENTITIES, ptr @KW_NMTOKEN, ptr @KW_NMTOKENS], align 16

; Function Attrs: nounwind uwtable
define internal i32 @common(ptr noundef %0, i32 noundef %1) #0 {
  %3 = alloca i32, align 4
  %4 = alloca ptr, align 8
  %5 = alloca i32, align 4
  store ptr %0, ptr %4, align 8, !tbaa !3
  store i32 %1, ptr %5, align 4, !tbaa !14
  %6 = load ptr, ptr %4, align 8, !tbaa !3
  %7 = getelementptr inbounds nuw %struct.prolog_state, ptr %6, i32 0, i32 4
  %8 = load i32, ptr %7, align 4, !tbaa !11
  %9 = icmp ne i32 %8, 0
  br i1 %9, label %14, label %10

10:                                               ; preds = %2
  %11 = load i32, ptr %5, align 4, !tbaa !14
  %12 = icmp eq i32 %11, 28
  br i1 %12, label %13, label %14

13:                                               ; preds = %10
  store i32 59, ptr %3, align 4
  br label %17

14:                                               ; preds = %10, %2
  %15 = load ptr, ptr %4, align 8, !tbaa !3
  %16 = getelementptr inbounds nuw %struct.prolog_state, ptr %15, i32 0, i32 0
  store ptr @error, ptr %16, align 8, !tbaa !8
  store i32 -1, ptr %3, align 4
  br label %17

17:                                               ; preds = %14, %13
  %18 = load i32, ptr %3, align 4
  ret i32 %18
}

; Function Attrs: nounwind uwtable
define internal i32 @attlist2(ptr noundef %0, i32 noundef %1, ptr noundef %2, ptr noundef %3, ptr noundef %4) #0 {
  %6 = alloca i32, align 4
  %7 = alloca ptr, align 8
  %8 = alloca i32, align 4
  %9 = alloca ptr, align 8
  %10 = alloca ptr, align 8
  %11 = alloca ptr, align 8
  %12 = alloca i32, align 4
  %13 = alloca i32, align 4
  store ptr %0, ptr %7, align 8, !tbaa !3
  store i32 %1, ptr %8, align 4, !tbaa !14
  store ptr %2, ptr %9, align 8, !tbaa !15
  store ptr %3, ptr %10, align 8, !tbaa !15
  store ptr %4, ptr %11, align 8, !tbaa !17
  %14 = load i32, ptr %8, align 4, !tbaa !14
  switch i32 %14, label %61 [
    i32 15, label %15
    i32 18, label %16
    i32 23, label %58
  ]

15:                                               ; preds = %5
  store i32 33, ptr %6, align 4
  br label %65

16:                                               ; preds = %5
  call void @llvm.lifetime.start.p0(i64 4, ptr %12) #2
  store i32 0, ptr %12, align 4, !tbaa !14
  br label %17

17:                                               ; preds = %39, %16
  %18 = load i32, ptr %12, align 4, !tbaa !14
  %19 = icmp slt i32 %18, 8
  br i1 %19, label %20, label %42

20:                                               ; preds = %17
  %21 = load ptr, ptr %11, align 8, !tbaa !17
  %22 = getelementptr inbounds nuw %struct.encoding, ptr %21, i32 0, i32 2
  %23 = load ptr, ptr %22, align 8, !tbaa !19
  %24 = load ptr, ptr %11, align 8, !tbaa !17
  %25 = load ptr, ptr %9, align 8, !tbaa !15
  %26 = load ptr, ptr %10, align 8, !tbaa !15
  %27 = load i32, ptr %12, align 4, !tbaa !14
  %28 = sext i32 %27 to i64
  %29 = getelementptr [8 x ptr], ptr @attlist2.types, i64 0, i64 %28
  %30 = load ptr, ptr %29, align 8, !tbaa !15
  %31 = call i32 %23(ptr noundef %24, ptr noundef %25, ptr noundef %26, ptr noundef %30)
  %32 = icmp ne i32 %31, 0
  br i1 %32, label %33, label %38

33:                                               ; preds = %20
  %34 = load ptr, ptr %7, align 8, !tbaa !3
  %35 = getelementptr inbounds nuw %struct.prolog_state, ptr %34, i32 0, i32 0
  store ptr @attlist8, ptr %35, align 8, !tbaa !8
  %36 = load i32, ptr %12, align 4, !tbaa !14
  %37 = add i32 23, %36
  store i32 %37, ptr %6, align 4
  store i32 1, ptr %13, align 4
  br label %43

38:                                               ; preds = %20
  br label %39

39:                                               ; preds = %38
  %40 = load i32, ptr %12, align 4, !tbaa !14
  %41 = add i32 %40, 1
  store i32 %41, ptr %12, align 4, !tbaa !14
  br label %17, !llvm.loop !23

42:                                               ; preds = %17
  store i32 0, ptr %13, align 4
  br label %43

43:                                               ; preds = %42, %33
  call void @llvm.lifetime.end.p0(i64 4, ptr %12) #2
  %44 = load i32, ptr %13, align 4
  switch i32 %44, label %67 [
    i32 0, label %45
    i32 1, label %65
  ]

45:                                               ; preds = %43
  %46 = load ptr, ptr %11, align 8, !tbaa !17
  %47 = getelementptr inbounds nuw %struct.encoding, ptr %46, i32 0, i32 2
  %48 = load ptr, ptr %47, align 8, !tbaa !19
  %49 = load ptr, ptr %11, align 8, !tbaa !17
  %50 = load ptr, ptr %9, align 8, !tbaa !15
  %51 = load ptr, ptr %10, align 8, !tbaa !15
  %52 = call i32 %48(ptr noundef %49, ptr noundef %50, ptr noundef %51, ptr noundef @KW_NOTATION)
  %53 = icmp ne i32 %52, 0
  br i1 %53, label %54, label %57

54:                                               ; preds = %45
  %55 = load ptr, ptr %7, align 8, !tbaa !3
  %56 = getelementptr inbounds nuw %struct.prolog_state, ptr %55, i32 0, i32 0
  store ptr @attlist5, ptr %56, align 8, !tbaa !8
  store i32 33, ptr %6, align 4
  br label %65

57:                                               ; preds = %45
  br label %61

58:                                               ; preds = %5
  %59 = load ptr, ptr %7, align 8, !tbaa !3
  %60 = getelementptr inbounds nuw %struct.prolog_state, ptr %59, i32 0, i32 0
  store ptr @attlist3, ptr %60, align 8, !tbaa !8
  store i32 33, ptr %6, align 4
  br label %65

61:                                               ; preds = %5, %57
  %62 = load ptr, ptr %7, align 8, !tbaa !3
  %63 = load i32, ptr %8, align 4, !tbaa !14
  %64 = call i32 @common(ptr noundef %62, i32 noundef %63)
  store i32 %64, ptr %6, align 4
  br label %65

65:                                               ; preds = %61, %58, %54, %43, %15
  %66 = load i32, ptr %6, align 4
  ret i32 %66

67:                                               ; preds = %43
  unreachable
}