; Function Attrs: nounwind uwtable
define internal range(i32 -1, 60) i32 @attlist2(ptr noundef captures(none) %0, i32 noundef %1, ptr noundef %2, ptr noundef %3, ptr noundef %4) #1 {
  switch i32 %1, label %21 [
    i32 15, label %common.exit
    i32 18, label %.preheader
    i32 23, label %20
  ]

.preheader:                                       ; preds = %5
  %6 = getelementptr inbounds nuw i8, ptr %4, i64 48
  br label %7

7:                                                ; preds = %.preheader, %12
  %indvars.iv = phi i64 [ 0, %.preheader ], [ %indvars.iv.next, %12 ]
  %8 = load ptr, ptr %6, align 8, !tbaa !12
  %9 = getelementptr [8 x ptr], ptr @attlist2.types, i64 0, i64 %indvars.iv
  %10 = load ptr, ptr %9, align 8, !tbaa !16
  %11 = tail call i32 %8(ptr noundef %4, ptr noundef %2, ptr noundef %3, ptr noundef %10) #5
  %.not = icmp eq i32 %11, 0
  br i1 %.not, label %12, label %13

12:                                               ; preds = %7
  %indvars.iv.next = add nuw nsw i64 %indvars.iv, 1
  %exitcond.not = icmp eq i64 %indvars.iv.next, 8
  br i1 %exitcond.not, label %16, label %7, !llvm.loop !18

13:                                               ; preds = %7
  %14 = trunc nuw nsw i64 %indvars.iv to i32
  store ptr @attlist8, ptr %0, align 8, !tbaa !3
  %15 = add nuw nsw i32 %14, 23
  br label %common.exit

16:                                               ; preds = %12
  %17 = load ptr, ptr %6, align 8, !tbaa !12
  %18 = tail call i32 %17(ptr noundef nonnull %4, ptr noundef %2, ptr noundef %3, ptr noundef nonnull @KW_NOTATION) #5
  %.not21 = icmp eq i32 %18, 0
  br i1 %.not21, label %21, label %19

19:                                               ; preds = %16
  store ptr @attlist5, ptr %0, align 8, !tbaa !3
  br label %common.exit

20:                                               ; preds = %5
  store ptr @attlist3, ptr %0, align 8, !tbaa !3
  br label %common.exit

21:                                               ; preds = %16, %5
  %22 = getelementptr inbounds nuw i8, ptr %0, i64 20
  %23 = load i32, ptr %22, align 4, !tbaa !9
  %24 = icmp eq i32 %23, 0
  %25 = icmp eq i32 %1, 28
  %or.cond.i = and i1 %25, %24
  br i1 %or.cond.i, label %common.exit, label %26

26:                                               ; preds = %21
  store ptr @error, ptr %0, align 8, !tbaa !3
  br label %common.exit

common.exit:                                      ; preds = %26, %21, %13, %5, %20, %19
  %.020 = phi i32 [ 33, %20 ], [ %15, %13 ], [ 33, %19 ], [ 33, %5 ], [ -1, %26 ], [ 59, %21 ]
  ret i32 %.020
}